; Function Attrs: nounwind uwtable
define noalias noundef ptr @Fra_SmlSelectMaxCost(ptr noundef readonly captures(none) %0, ptr noundef readonly captures(none) %1, i32 noundef %2, i32 noundef %3, ptr noundef writeonly %4) local_unnamed_addr #0 {
  %6 = add nsw i32 %2, 1
  %7 = sext i32 %6 to i64
  %8 = shl nsw i64 %7, 2
  %calloc = tail call ptr @calloc(i64 1, i64 %8)
  %9 = getelementptr i8, ptr %0, i64 4
  %.val = load i32, ptr %9, align 4, !tbaa !38
  %10 = icmp sgt i32 %.val, 0
  br i1 %10, label %.lr.ph.preheader, label %.preheader

.lr.ph.preheader:                                 ; preds = %5
  %wide.trip.count = zext nneg i32 %.val to i64
  br label %.lr.ph

.preheader:                                       ; preds = %.lr.ph, %5
  %11 = icmp sgt i32 %2, 0
  br i1 %11, label %.lr.ph48, label %._crit_edge

.lr.ph:                                           ; preds = %.lr.ph.preheader, %.lr.ph
  %indvars.iv = phi i64 [ 0, %.lr.ph.preheader ], [ %indvars.iv.next, %.lr.ph ]
  %12 = getelementptr inbounds nuw i32, ptr %1, i64 %indvars.iv
  %13 = load i32, ptr %12, align 4, !tbaa !29
  %14 = sext i32 %13 to i64
  %15 = getelementptr inbounds i32, ptr %calloc, i64 %14
  %16 = load i32, ptr %15, align 4, !tbaa !29
  %17 = add nsw i32 %16, 1
  store i32 %17, ptr %15, align 4, !tbaa !29
  %indvars.iv.next = add nuw nsw i64 %indvars.iv, 1
  %exitcond.not = icmp eq i64 %indvars.iv.next, %wide.trip.count
  br i1 %exitcond.not, label %.preheader, label %.lr.ph, !llvm.loop !40

.lr.ph48:                                         ; preds = %.preheader, %22
  %.047 = phi i32 [ %23, %22 ], [ %2, %.preheader ]
  %.03646 = phi i32 [ %21, %22 ], [ 0, %.preheader ]
  %18 = zext nneg i32 %.047 to i64
  %19 = getelementptr inbounds nuw i32, ptr %calloc, i64 %18
  %20 = load i32, ptr %19, align 4, !tbaa !29
  %21 = add nsw i32 %20, %.03646
  %.not = icmp slt i32 %21, %3
  br i1 %.not, label %22, label %._crit_edge

22:                                               ; preds = %.lr.ph48
  %23 = add nsw i32 %.047, -1
  %24 = icmp sgt i32 %.047, 1
  br i1 %24, label %.lr.ph48, label %._crit_edge, !llvm.loop !41

._crit_edge:                                      ; preds = %22, %.lr.ph48, %.preheader
  %.0.lcssa = phi i32 [ %2, %.preheader ], [ %.047, %.lr.ph48 ], [ 0, %22 ]
  %25 = tail call noalias dereferenceable_or_null(16) ptr @malloc(i64 noundef 16) #18
  %26 = add i32 %3, -1
  %or.cond.i = icmp ult i32 %26, 15
  %spec.store.select.i = select i1 %or.cond.i, i32 16, i32 %3
  %27 = getelementptr inbounds nuw i8, ptr %25, i64 4
  store i32 0, ptr %27, align 4, !tbaa !38
  store i32 %spec.store.select.i, ptr %25, align 8, !tbaa !42
  %.not.i = icmp eq i32 %spec.store.select.i, 0
  br i1 %.not.i, label %Vec_IntAlloc.exit, label %28

28:                                               ; preds = %._crit_edge
  %29 = sext i32 %spec.store.select.i to i64
  %30 = shl nsw i64 %29, 2
  %31 = tail call noalias ptr @malloc(i64 noundef %30) #18
  br label %Vec_IntAlloc.exit

Vec_IntAlloc.exit:                                ; preds = %._crit_edge, %28
  %32 = phi ptr [ %31, %28 ], [ null, %._crit_edge ]
  %33 = getelementptr inbounds nuw i8, ptr %25, i64 8
  store ptr %32, ptr %33, align 8, !tbaa !43
  br i1 %10, label %.lr.ph53, label %.critedge

.lr.ph53:                                         ; preds = %Vec_IntAlloc.exit
  %34 = getelementptr i8, ptr %0, i64 8
  br label %35

35:                                               ; preds = %.lr.ph53, %65
  %.val4261 = phi i32 [ %.val, %.lr.ph53 ], [ %.val42, %65 ]
  %36 = phi ptr [ %32, %.lr.ph53 ], [ %.pre.i59, %65 ]
  %37 = phi i32 [ 0, %.lr.ph53 ], [ %66, %65 ]
  %indvars.iv55 = phi i64 [ 0, %.lr.ph53 ], [ %indvars.iv.next56, %65 ]
  %.val44 = load ptr, ptr %34, align 8, !tbaa !43
  %38 = getelementptr inbounds nuw i32, ptr %.val44, i64 %indvars.iv55
  %39 = load i32, ptr %38, align 4, !tbaa !29
  %40 = getelementptr inbounds nuw i32, ptr %1, i64 %indvars.iv55
  %41 = load i32, ptr %40, align 4, !tbaa !29
  %42 = icmp slt i32 %41, %.0.lcssa
  br i1 %42, label %65, label %43

43:                                               ; preds = %35
  %44 = load i32, ptr %25, align 8, !tbaa !42
  %45 = icmp eq i32 %37, %44
  br i1 %45, label %46, label %Vec_IntPush.exit

46:                                               ; preds = %43
  %47 = icmp slt i32 %37, 16
  br i1 %47, label %48, label %53

48:                                               ; preds = %46
  %.not9.i.i = icmp eq ptr %36, null
  br i1 %.not9.i.i, label %51, label %49

49:                                               ; preds = %48
  %50 = tail call dereferenceable_or_null(64) ptr @realloc(ptr noundef nonnull %36, i64 noundef 64) #19
  br label %Vec_IntPush.exit.sink.split

51:                                               ; preds = %48
  %52 = tail call noalias dereferenceable_or_null(64) ptr @malloc(i64 noundef 64) #18
  br label %Vec_IntPush.exit.sink.split

53:                                               ; preds = %46
  %54 = shl nuw nsw i32 %37, 1
  %.not9.i9.i = icmp eq ptr %36, null
  %55 = zext nneg i32 %54 to i64
  %56 = shl nuw nsw i64 %55, 2
  br i1 %.not9.i9.i, label %59, label %57

57:                                               ; preds = %53
  %58 = tail call ptr @realloc(ptr noundef nonnull %36, i64 noundef %56) #19
  br label %Vec_IntPush.exit.sink.split

59:                                               ; preds = %53
  %60 = tail call noalias ptr @malloc(i64 noundef %56) #18
  br label %Vec_IntPush.exit.sink.split

Vec_IntPush.exit.sink.split:                      ; preds = %57, %59, %49, %51
  %.sink63 = phi ptr [ %50, %49 ], [ %52, %51 ], [ %58, %57 ], [ %60, %59 ]
  %.sink = phi i32 [ 16, %49 ], [ 16, %51 ], [ %54, %57 ], [ %54, %59 ]
  store ptr %.sink63, ptr %33, align 8, !tbaa !43
  store i32 %.sink, ptr %25, align 8, !tbaa !42
  br label %Vec_IntPush.exit

Vec_IntPush.exit:                                 ; preds = %Vec_IntPush.exit.sink.split, %43
  %.pre.i60 = phi ptr [ %36, %43 ], [ %.sink63, %Vec_IntPush.exit.sink.split ]
  %61 = add nsw i32 %37, 1
  store i32 %61, ptr %27, align 4, !tbaa !38
  %62 = sext i32 %37 to i64
  %63 = getelementptr inbounds i32, ptr %.pre.i60, i64 %62
  store i32 %39, ptr %63, align 4, !tbaa !29
  %.val43 = load i32, ptr %27, align 4, !tbaa !38
  %64 = icmp eq i32 %.val43, %3
  br i1 %64, label %.critedge, label %Vec_IntPush.exit._crit_edge

Vec_IntPush.exit._crit_edge:                      ; preds = %Vec_IntPush.exit
  %.val42.pre = load i32, ptr %9, align 4, !tbaa !38
  br label %65

65:                                               ; preds = %Vec_IntPush.exit._crit_edge, %35
  %.val42 = phi i32 [ %.val42.pre, %Vec_IntPush.exit._crit_edge ], [ %.val4261, %35 ]
  %.pre.i59 = phi ptr [ %.pre.i60, %Vec_IntPush.exit._crit_edge ], [ %36, %35 ]
  %66 = phi i32 [ %.val43, %Vec_IntPush.exit._crit_edge ], [ %37, %35 ]
  %indvars.iv.next56 = add nuw nsw i64 %indvars.iv55, 1
  %67 = sext i32 %.val42 to i64
  %68 = icmp slt i64 %indvars.iv.next56, %67
  br i1 %68, label %35, label %.critedge, !llvm.loop !44

.critedge:                                        ; preds = %Vec_IntPush.exit, %65, %Vec_IntAlloc.exit
  %.not40 = icmp eq ptr %calloc, null
  br i1 %.not40, label %70, label %69

69:                                               ; preds = %.critedge
  tail call void @free(ptr noundef nonnull %calloc) #20
  br label %70

70:                                               ; preds = %.critedge, %69
  %.not41 = icmp eq ptr %4, null
  br i1 %.not41, label %72, label %71

71:                                               ; preds = %70
  store i32 %.0.lcssa, ptr %4, align 4, !tbaa !29
  br label %72

72:                                               ; preds = %71, %70
  ret ptr %25
}